target datalayout = "e-m:e-p270:32:32-p271:32:32-p272:64:64-i64:64-i128:128-f80:128-n8:16:32:64-S128"
target triple = "x86_64-pc-linux-gnu"

; Function Attrs: nounwind uwtable
define hidden void @av1_highbd_iwht4x4_add(ptr noundef %0, ptr noundef %1, i32 noundef %2, i32 noundef %3, i32 noundef %4) #0 {
  %6 = alloca ptr, align 8
  %7 = alloca ptr, align 8
  %8 = alloca i32, align 4
  %9 = alloca i32, align 4
  %10 = alloca i32, align 4
  store ptr %0, ptr %6, align 8
  store ptr %1, ptr %7, align 8
  store i32 %2, ptr %8, align 4
  store i32 %3, ptr %9, align 4
  store i32 %4, ptr %10, align 4
  %11 = load i32, ptr %9, align 4
  %12 = icmp sgt i32 %11, 1
  br i1 %12, label %13, label %18

13:                                               ; preds = %5
  %14 = load ptr, ptr %6, align 8
  %15 = load ptr, ptr %7, align 8
  %16 = load i32, ptr %8, align 4
  %17 = load i32, ptr %10, align 4
  call void @av1_highbd_iwht4x4_16_add_c(ptr noundef %14, ptr noundef %15, i32 noundef %16, i32 noundef %17)
  br label %23

18:                                               ; preds = %5
  %19 = load ptr, ptr %6, align 8
  %20 = load ptr, ptr %7, align 8
  %21 = load i32, ptr %8, align 4
  %22 = load i32, ptr %10, align 4
  call void @av1_highbd_iwht4x4_1_add_c(ptr noundef %19, ptr noundef %20, i32 noundef %21, i32 noundef %22)
  br label %23

23:                                               ; preds = %18, %13
  ret void
}