; Function Attrs: nounwind uwtable
define hidden void @av1_highbd_iwht4x4_add(ptr noundef %0, ptr noundef %1, i32 noundef %2, i32 noundef %3, i32 noundef %4) local_unnamed_addr #1 {
  %6 = icmp sgt i32 %3, 1
  br i1 %6, label %7, label %8

7:                                                ; preds = %5
  tail call void @av1_highbd_iwht4x4_16_add_c(ptr noundef %0, ptr noundef %1, i32 noundef %2, i32 noundef %4) #5
  br label %9

8:                                                ; preds = %5
  tail call void @av1_highbd_iwht4x4_1_add_c(ptr noundef %0, ptr noundef %1, i32 noundef %2, i32 noundef %4) #5
  br label %9

9:                                                ; preds = %8, %7
  ret void
}